target datalayout = "e-m:e-p270:32:32-p271:32:32-p272:64:64-i64:64-i128:128-f80:128-n8:16:32:64-S128"
target triple = "x86_64-pc-linux-gnu"

%struct.OSSL_TIME = type { i64 }
%struct.terp_config_st = type { ptr, ptr, ptr, ptr, ptr, %struct.OSSL_TIME }
%struct.radix_thread_st = type { ptr, ptr, ptr, i64, i64, [8 x ptr], [8 x ptr], ptr, ptr, ptr, i32, i32, i64 }

@.str.20 = private unnamed_addr constant [34 x i8] c"bindings_adjust_terp_config(&cfg)\00", align 1
@.str.74 = private unnamed_addr constant [38 x i8] c"../openssl/test/radix/quic_bindings.c\00", align 1
@radix_thread = internal global i32 0, align 4
@.str.144 = private unnamed_addr constant [22 x i8] c"radix_thread_init(rt)\00", align 1
@.str.145 = private unnamed_addr constant [3 x i8] c"rt\00", align 1
@.str.148 = private unnamed_addr constant [45 x i8] c"CRYPTO_THREAD_set_local(&radix_thread, NULL)\00", align 1

; Function Attrs: nounwind uwtable
define internal ptr @radix_get_thread() #0 {
  %1 = call ptr @CRYPTO_THREAD_get_local(ptr noundef @radix_thread)
  ret ptr %1
}

; Function Attrs: nounwind uwtable
define internal i32 @bindings_adjust_terp_config(ptr noundef %0) #0 {
  %2 = alloca ptr, align 8
  store ptr %0, ptr %2, align 8, !tbaa !22
  %3 = load ptr, ptr %2, align 8, !tbaa !22
  %4 = getelementptr inbounds nuw %struct.terp_config_st, ptr %3, i32 0, i32 1
  store ptr @get_time, ptr %4, align 8, !tbaa !24
  %5 = load ptr, ptr %2, align 8, !tbaa !22
  %6 = getelementptr inbounds nuw %struct.terp_config_st, ptr %5, i32 0, i32 3
  store ptr @do_per_op, ptr %6, align 8, !tbaa !25
  ret i32 1
}

; Function Attrs: nounwind uwtable
define internal void @radix_thread_cleanup() #0 {
  %1 = alloca ptr, align 8
  %2 = alloca i32, align 4
  call void @llvm.lifetime.start.p0(i64 8, ptr %1) #9
  %3 = call ptr @radix_get_thread()
  store ptr %3, ptr %1, align 8, !tbaa !20
  %4 = load ptr, ptr %1, align 8, !tbaa !20
  %5 = call i32 @test_ptr(ptr noundef @.str.74, i32 noundef 580, ptr noundef @.str.145, ptr noundef %4)
  %6 = icmp ne i32 %5, 0
  br i1 %6, label %8, label %7

7:                                                ; preds = %0
  store i32 1, ptr %2, align 4
  br label %16

8:                                                ; preds = %0
  %9 = call i32 @CRYPTO_THREAD_set_local(ptr noundef @radix_thread, ptr noundef null)
  %10 = icmp ne i32 %9, 0
  %11 = zext i1 %10 to i32
  %12 = call i32 @test_true(ptr noundef @.str.74, i32 noundef 583, ptr noundef @.str.148, i32 noundef %11)
  %13 = icmp ne i32 %12, 0
  br i1 %13, label %15, label %14

14:                                               ; preds = %8
  store i32 1, ptr %2, align 4
  br label %16

15:                                               ; preds = %8
  store i32 0, ptr %2, align 4
  br label %16

16:                                               ; preds = %15, %14, %7
  call void @llvm.lifetime.end.p0(i64 8, ptr %1) #9
  %17 = load i32, ptr %2, align 4
  switch i32 %17, label %19 [
    i32 0, label %18
    i32 1, label %18
  ]

18:                                               ; preds = %16, %16
  ret void

19:                                               ; preds = %16
  unreachable
}

; Function Attrs: nounwind uwtable
define internal i32 @RADIX_THREAD_worker_run(ptr noundef %0) #0 {
  %2 = alloca ptr, align 8
  %3 = alloca i32, align 4
  %4 = alloca %struct.terp_config_st, align 8
  store ptr %0, ptr %2, align 8, !tbaa !20
  call void @llvm.lifetime.start.p0(i64 4, ptr %3) #9
  store i32 0, ptr %3, align 4, !tbaa !9
  call void @llvm.lifetime.start.p0(i64 48, ptr %4) #9
  call void @llvm.memset.p0.i64(ptr align 8 %4, i8 0, i64 48, i1 false)
  %5 = load ptr, ptr %2, align 8, !tbaa !20
  %6 = getelementptr inbounds nuw %struct.radix_thread_st, ptr %5, i32 0, i32 8
  %7 = load ptr, ptr %6, align 8, !tbaa !93
  %8 = getelementptr inbounds nuw %struct.terp_config_st, ptr %4, i32 0, i32 0
  store ptr %7, ptr %8, align 8, !tbaa !15
  %9 = call i32 @bindings_adjust_terp_config(ptr noundef %4)
  %10 = icmp ne i32 %9, 0
  %11 = zext i1 %10 to i32
  %12 = call i32 @test_true(ptr noundef @.str.74, i32 noundef 732, ptr noundef @.str.20, i32 noundef %11)
  %13 = icmp ne i32 %12, 0
  br i1 %13, label %15, label %14

14:                                               ; preds = %1
  br label %23

15:                                               ; preds = %1
  %16 = load ptr, ptr %2, align 8, !tbaa !20
  %17 = getelementptr inbounds nuw %struct.radix_thread_st, ptr %16, i32 0, i32 7
  %18 = load ptr, ptr %17, align 8, !tbaa !95
  %19 = call i32 @TERP_run(ptr noundef %18, ptr noundef %4)
  %20 = icmp ne i32 %19, 0
  br i1 %20, label %22, label %21

21:                                               ; preds = %15
  br label %23

22:                                               ; preds = %15
  store i32 1, ptr %3, align 4, !tbaa !9
  br label %23

23:                                               ; preds = %22, %21, %14
  %24 = load i32, ptr %3, align 4, !tbaa !9
  call void @llvm.lifetime.end.p0(i64 48, ptr %4) #9
  call void @llvm.lifetime.end.p0(i64 4, ptr %3) #9
  ret i32 %24
}

; Function Attrs: nounwind uwtable
define internal i32 @RADIX_THREAD_worker_main(ptr noundef %0) #0 {
  %2 = alloca i32, align 4
  %3 = alloca ptr, align 8
  %4 = alloca i32, align 4
  %5 = alloca ptr, align 8
  %6 = alloca i32, align 4
  store ptr %0, ptr %3, align 8, !tbaa !41
  call void @llvm.lifetime.start.p0(i64 4, ptr %4) #9
  store i32 0, ptr %4, align 4, !tbaa !9
  call void @llvm.lifetime.start.p0(i64 8, ptr %5) #9
  %7 = load ptr, ptr %3, align 8, !tbaa !41
  store ptr %7, ptr %5, align 8, !tbaa !20
  %8 = load ptr, ptr %5, align 8, !tbaa !20
  %9 = call i32 @radix_thread_init(ptr noundef %8)
  %10 = icmp ne i32 %9, 0
  %11 = zext i1 %10 to i32
  %12 = call i32 @test_true(ptr noundef @.str.74, i32 noundef 748, ptr noundef @.str.144, i32 noundef %11)
  %13 = icmp ne i32 %12, 0
  br i1 %13, label %15, label %14

14:                                               ; preds = %1
  store i32 0, ptr %2, align 4
  store i32 1, ptr %6, align 4
  br label %35

15:                                               ; preds = %1
  %16 = load ptr, ptr %5, align 8, !tbaa !20
  %17 = getelementptr inbounds nuw %struct.radix_thread_st, ptr %16, i32 0, i32 9
  %18 = load ptr, ptr %17, align 8, !tbaa !94
  call void @ossl_crypto_mutex_lock(ptr noundef %18)
  %19 = load ptr, ptr %5, align 8, !tbaa !20
  %20 = getelementptr inbounds nuw %struct.radix_thread_st, ptr %19, i32 0, i32 9
  %21 = load ptr, ptr %20, align 8, !tbaa !94
  call void @ossl_crypto_mutex_unlock(ptr noundef %21)
  %22 = load ptr, ptr %5, align 8, !tbaa !20
  %23 = call i32 @RADIX_THREAD_worker_run(ptr noundef %22)
  store i32 %23, ptr %4, align 4, !tbaa !9
  %24 = load ptr, ptr %5, align 8, !tbaa !20
  %25 = getelementptr inbounds nuw %struct.radix_thread_st, ptr %24, i32 0, i32 9
  %26 = load ptr, ptr %25, align 8, !tbaa !94
  call void @ossl_crypto_mutex_lock(ptr noundef %26)
  %27 = load i32, ptr %4, align 4, !tbaa !9
  %28 = load ptr, ptr %5, align 8, !tbaa !20
  %29 = getelementptr inbounds nuw %struct.radix_thread_st, ptr %28, i32 0, i32 11
  store i32 %27, ptr %29, align 4, !tbaa !101
  %30 = load ptr, ptr %5, align 8, !tbaa !20
  %31 = getelementptr inbounds nuw %struct.radix_thread_st, ptr %30, i32 0, i32 10
  store i32 1, ptr %31, align 8, !tbaa !102
  %32 = load ptr, ptr %5, align 8, !tbaa !20
  %33 = getelementptr inbounds nuw %struct.radix_thread_st, ptr %32, i32 0, i32 9
  %34 = load ptr, ptr %33, align 8, !tbaa !94
  call void @ossl_crypto_mutex_unlock(ptr noundef %34)
  call void @radix_thread_cleanup()
  store i32 1, ptr %2, align 4
  store i32 1, ptr %6, align 4
  br label %35

35:                                               ; preds = %15, %14
  call void @llvm.lifetime.end.p0(i64 8, ptr %5) #9
  call void @llvm.lifetime.end.p0(i64 4, ptr %4) #9
  %36 = load i32, ptr %2, align 4
  ret i32 %36
}