; Function Attrs: nounwind uwtable
define internal range(i32 0, 2) i32 @RADIX_THREAD_worker_main(ptr noundef %0) #1 {
  %2 = alloca %struct.terp_config_st, align 8
  %3 = tail call fastcc i32 @radix_thread_init(ptr noundef %0)
  %4 = tail call i32 @test_true(ptr noundef nonnull @.str.74, i32 noundef 748, ptr noundef nonnull @.str.144, i32 noundef %3) #12
  %.not = icmp eq i32 %4, 0
  br i1 %.not, label %radix_thread_cleanup.exit, label %5

5:                                                ; preds = %1
  %6 = getelementptr inbounds nuw i8, ptr %0, i64 184
  %7 = load ptr, ptr %6, align 8, !tbaa !38
  tail call void @ossl_crypto_mutex_lock(ptr noundef %7) #12
  %8 = load ptr, ptr %6, align 8, !tbaa !38
  tail call void @ossl_crypto_mutex_unlock(ptr noundef %8) #12
  call void @llvm.lifetime.start.p0(i64 48, ptr nonnull %2) #12
  %9 = getelementptr inbounds nuw i8, ptr %2, i64 16
  call void @llvm.memset.p0.i64(ptr noundef nonnull align 8 dereferenceable(48) %9, i8 0, i64 32, i1 false)
  %10 = getelementptr inbounds nuw i8, ptr %0, i64 176
  %11 = load ptr, ptr %10, align 8, !tbaa !42
  store ptr %11, ptr %2, align 8, !tbaa !24
  %12 = getelementptr inbounds nuw i8, ptr %2, i64 8
  store ptr @get_time, ptr %12, align 8, !tbaa !26
  %13 = getelementptr inbounds nuw i8, ptr %2, i64 24
  store ptr @do_per_op, ptr %13, align 8, !tbaa !27
  %14 = tail call i32 @test_true(ptr noundef nonnull @.str.74, i32 noundef 732, ptr noundef nonnull @.str.20, i32 noundef 1) #12
  %.not.i = icmp eq i32 %14, 0
  br i1 %.not.i, label %RADIX_THREAD_worker_run.exit, label %15

15:                                               ; preds = %5
  %16 = getelementptr inbounds nuw i8, ptr %0, i64 168
  %17 = load ptr, ptr %16, align 8, !tbaa !114
  %18 = call fastcc i32 @TERP_run(ptr noundef %17, ptr noundef %2)
  br label %RADIX_THREAD_worker_run.exit

RADIX_THREAD_worker_run.exit:                     ; preds = %5, %15
  %.0.i = phi i32 [ 0, %5 ], [ %18, %15 ]
  call void @llvm.lifetime.end.p0(i64 48, ptr nonnull %2) #12
  %19 = load ptr, ptr %6, align 8, !tbaa !38
  tail call void @ossl_crypto_mutex_lock(ptr noundef %19) #12
  %20 = getelementptr inbounds nuw i8, ptr %0, i64 196
  store i32 %.0.i, ptr %20, align 4, !tbaa !35
  %21 = getelementptr inbounds nuw i8, ptr %0, i64 192
  store i32 1, ptr %21, align 8, !tbaa !34
  %22 = load ptr, ptr %6, align 8, !tbaa !38
  tail call void @ossl_crypto_mutex_unlock(ptr noundef %22) #12
  %23 = tail call ptr @CRYPTO_THREAD_get_local(ptr noundef nonnull @radix_thread) #12
  %24 = tail call i32 @test_ptr(ptr noundef nonnull @.str.74, i32 noundef 580, ptr noundef nonnull @.str.145, ptr noundef %23) #12
  %.not.i10 = icmp eq i32 %24, 0
  br i1 %.not.i10, label %radix_thread_cleanup.exit, label %25

25:                                               ; preds = %RADIX_THREAD_worker_run.exit
  %26 = tail call i32 @CRYPTO_THREAD_set_local(ptr noundef nonnull @radix_thread, ptr noundef null) #12
  %27 = icmp ne i32 %26, 0
  %28 = zext i1 %27 to i32
  %29 = tail call i32 @test_true(ptr noundef nonnull @.str.74, i32 noundef 583, ptr noundef nonnull @.str.148, i32 noundef %28) #12
  br label %radix_thread_cleanup.exit

radix_thread_cleanup.exit:                        ; preds = %25, %RADIX_THREAD_worker_run.exit, %1
  %.0 = phi i32 [ 0, %1 ], [ 1, %RADIX_THREAD_worker_run.exit ], [ 1, %25 ]
  ret i32 %.0
}